; Function Attrs: mustprogress nofree norecurse nosync nounwind willreturn memory(argmem: readwrite) uwtable
define noundef nonnull align 8 dereferenceable(16) ptr @_ZN4LIEF2PE11ContentInfoaSES1_(ptr noundef nonnull returned align 8 dereferenceable(16) %0, ptr nocapture noundef %1) local_unnamed_addr #7 align 2 {
  %3 = getelementptr inbounds i8, ptr %0, i64 8
  %4 = getelementptr inbounds i8, ptr %1, i64 8
  %5 = load ptr, ptr %3, align 8
  %6 = load ptr, ptr %4, align 8
  store ptr %6, ptr %3, align 8
  store ptr %5, ptr %4, align 8
  ret ptr %0
}